; Function Attrs: mustprogress nounwind uwtable
define internal fastcc void @"_ZZNK4llvm11GEPOperator13collectOffsetERKNS_10DataLayoutEjRNS_9MapVectorIPNS_5ValueENS_5APIntENS_8DenseMapIS6_jNS_12DenseMapInfoIS6_vEENS_6detail12DenseMapPairIS6_jEEEENS_11SmallVectorISt4pairIS6_S7_ELj0EEEEERS7_ENK3$_0clES7_m"(ptr nocapture noundef nonnull readonly align 8 dereferenceable(16) %0, ptr noundef nonnull %1, i64 noundef %2) unnamed_addr #0 align 2 {
  %4 = alloca %"class.llvm::APInt", align 8
  %5 = alloca %"class.llvm::APInt", align 8
  %6 = alloca %"class.llvm::APInt", align 8
  %7 = load ptr, ptr %0, align 8
  %8 = load i32, ptr %7, align 4
  call void @_ZNK4llvm5APInt11sextOrTruncEj(ptr dead_on_unwind nonnull writable sret(%"class.llvm::APInt") align 8 %4, ptr noundef nonnull align 8 dereferenceable(12) %1, i32 noundef %8) #9
  %9 = getelementptr inbounds nuw i8, ptr %1, i64 8
  %10 = load i32, ptr %9, align 8
  %11 = icmp ult i32 %10, 65
  br i1 %11, label %_ZN4llvm5APIntD2Ev.exit, label %12

12:                                               ; preds = %3
  %13 = load ptr, ptr %1, align 8
  %14 = icmp eq ptr %13, null
  br i1 %14, label %_ZN4llvm5APIntD2Ev.exit, label %15

15:                                               ; preds = %12
  call void @_ZdaPv(ptr noundef nonnull %13) #10
  br label %_ZN4llvm5APIntD2Ev.exit

_ZN4llvm5APIntD2Ev.exit:                          ; preds = %15, %12, %3
  %16 = load i64, ptr %4, align 8
  store i64 %16, ptr %1, align 8
  %17 = getelementptr inbounds nuw i8, ptr %4, i64 8
  %18 = load i32, ptr %17, align 8
  store i32 %18, ptr %9, align 8
  store i32 0, ptr %17, align 8
  %19 = load ptr, ptr %0, align 8
  %20 = load i32, ptr %19, align 4
  %21 = getelementptr inbounds nuw i8, ptr %5, i64 8
  store i32 %20, ptr %21, align 8
  %22 = icmp ult i32 %20, 65
  br i1 %22, label %23, label %31

23:                                               ; preds = %_ZN4llvm5APIntD2Ev.exit
  %24 = add nuw nsw i32 %20, 63
  %25 = and i32 %24, 63
  %26 = xor i32 %25, 63
  %27 = zext nneg i32 %26 to i64
  %28 = lshr i64 -1, %27
  %29 = icmp eq i32 %20, 0
  %spec.store.select.i.i = select i1 %29, i64 0, i64 %28
  %30 = and i64 %spec.store.select.i.i, %2
  store i64 %30, ptr %5, align 8
  br label %_ZN4llvm5APIntC2Ejmbb.exit

31:                                               ; preds = %_ZN4llvm5APIntD2Ev.exit
  call void @_ZN4llvm5APInt12initSlowCaseEmb(ptr noundef nonnull align 8 dereferenceable(12) %5, i64 noundef %2, i1 noundef zeroext false) #9
  br label %_ZN4llvm5APIntC2Ejmbb.exit

_ZN4llvm5APIntC2Ejmbb.exit:                       ; preds = %23, %31
  call void @_ZNK4llvm5APIntmlERKS0_(ptr dead_on_unwind nonnull writable sret(%"class.llvm::APInt") align 8 %6, ptr noundef nonnull align 8 dereferenceable(12) %1, ptr noundef nonnull align 8 dereferenceable(12) %5) #9
  %32 = getelementptr inbounds nuw i8, ptr %0, i64 8
  %33 = load ptr, ptr %32, align 8
  %34 = call noundef nonnull align 8 dereferenceable(12) ptr @_ZN4llvm5APIntpLERKS0_(ptr noundef nonnull align 8 dereferenceable(12) %33, ptr noundef nonnull align 8 dereferenceable(12) %6) #9
  %35 = getelementptr inbounds nuw i8, ptr %6, i64 8
  %36 = load i32, ptr %35, align 8
  %37 = icmp ugt i32 %36, 64
  br i1 %37, label %38, label %_ZN4llvm5APIntD2Ev.exit1

38:                                               ; preds = %_ZN4llvm5APIntC2Ejmbb.exit
  %39 = load ptr, ptr %6, align 8
  %40 = icmp eq ptr %39, null
  br i1 %40, label %_ZN4llvm5APIntD2Ev.exit1, label %41

41:                                               ; preds = %38
  call void @_ZdaPv(ptr noundef nonnull %39) #10
  br label %_ZN4llvm5APIntD2Ev.exit1

_ZN4llvm5APIntD2Ev.exit1:                         ; preds = %_ZN4llvm5APIntC2Ejmbb.exit, %38, %41
  %42 = load i32, ptr %21, align 8
  %43 = icmp ugt i32 %42, 64
  br i1 %43, label %44, label %_ZN4llvm5APIntD2Ev.exit2

44:                                               ; preds = %_ZN4llvm5APIntD2Ev.exit1
  %45 = load ptr, ptr %5, align 8
  %46 = icmp eq ptr %45, null
  br i1 %46, label %_ZN4llvm5APIntD2Ev.exit2, label %47

47:                                               ; preds = %44
  call void @_ZdaPv(ptr noundef nonnull %45) #10
  br label %_ZN4llvm5APIntD2Ev.exit2

_ZN4llvm5APIntD2Ev.exit2:                         ; preds = %_ZN4llvm5APIntD2Ev.exit1, %44, %47
  ret void
}